	.file	"example.c"
	.intel_syntax noprefix
	.section	.rodata
.LC0:
	.string	"%d "
.LC1:
	.string	"%d\n"
	.text
	.globl	a
	.type	a, @function
a:
.LFB0:
	.cfi_startproc
	push	rbp
	.cfi_def_cfa_offset 16
	.cfi_offset 6, -16
	mov	rbp, rsp
	.cfi_def_cfa_register 6
	sub	rsp, 16
	mov	eax, DWORD PTR [rbp-4]
	mov	esi, eax
	mov	edi, OFFSET FLAT:.LC0
	mov	eax, 0
	call	printf
	mov	DWORD PTR [rbp-4], 10
	mov	eax, DWORD PTR [rbp-4]
	mov	esi, eax
	mov	edi, OFFSET FLAT:.LC1
	mov	eax, 0
	call	printf
	nop
	leave
	.cfi_def_cfa 7, 8
	ret
	.cfi_endproc
.LFE0:
	.size	a, .-a
	.globl	b
	.type	b, @function
b:
.LFB1:
	.cfi_startproc
	push	rbp
	.cfi_def_cfa_offset 16
	.cfi_offset 6, -16
	mov	rbp, rsp
	.cfi_def_cfa_register 6
	sub	rsp, 16
	mov	eax, DWORD PTR [rbp-4]
	mov	esi, eax
	mov	edi, OFFSET FLAT:.LC0
	mov	eax, 0
	call	printf
	mov	DWORD PTR [rbp-4], 20
	mov	eax, DWORD PTR [rbp-4]
	mov	esi, eax
	mov	edi, OFFSET FLAT:.LC1
	mov	eax, 0
	call	printf
	nop
	leave
	.cfi_def_cfa 7, 8
	ret
	.cfi_endproc
.LFE1:
	.size	b, .-b
	.section	.rodata
.LC2:
	.string	"Hello, world!"
	.text
	.globl	main
	.type	main, @function
main:
.LFB2:
	.cfi_startproc
	push	rbp
	.cfi_def_cfa_offset 16
	.cfi_offset 6, -16
	mov	rbp, rsp
	.cfi_def_cfa_register 6
	mov	edi, OFFSET FLAT:.LC2
	call	puts
	call	a
	call	b
	call	a
	mov	eax, 0
	pop	rbp
	.cfi_def_cfa 7, 8
	ret
	.cfi_endproc
.LFE2:
	.size	main, .-main
	.ident	"GCC: (Ubuntu 5.4.0-6ubuntu1~16.04.12) 5.4.0 20160609"
	.section	.note.GNU-stack,"",@progbits
